target datalayout = "e-m:e-p270:32:32-p271:32:32-p272:64:64-i64:64-i128:128-f80:128-n8:16:32:64-S128"
target triple = "x86_64-pc-linux-gnu"

@hf_corosync_totemsrp_ip_address = internal global i32 0, align 4
@hf_corosync_totemsrp_ip_address_nodeid = internal global i32 0, align 4
@hf_corosync_totemsrp_ip_address_family = internal global i32 0, align 4
@hf_corosync_totemsrp_ip_address_addr = internal global i32 0, align 4
@hf_corosync_totemsrp_ip_address_addr4 = internal global i32 0, align 4
@hf_corosync_totemsrp_ip_address_addr4_padding = internal global i32 0, align 4
@hf_corosync_totemsrp_ip_address_addr6 = internal global i32 0, align 4
@ett_corosync_totemsrp_ip_address = internal global i32 0, align 4
@.str.116 = private unnamed_addr constant [3 x i8] c" (\00", align 1
@.str.117 = private unnamed_addr constant [16 x i8] c"interface: %u; \00", align 1
@.str.118 = private unnamed_addr constant [10 x i8] c"node: %u)\00", align 1

; Function Attrs: null_pointer_is_valid sspstrong uwtable
define internal zeroext i16 @corosync_totemsrp_get_uint16(ptr noundef %0, i32 noundef %1, i32 noundef %2) #0 {
  %4 = alloca i16, align 2
  %5 = alloca ptr, align 8
  %6 = alloca i32, align 4
  %7 = alloca i32, align 4
  store ptr %0, ptr %5, align 8
  store i32 %1, ptr %6, align 4
  store i32 %2, ptr %7, align 4
  %8 = load i32, ptr %7, align 4
  %9 = icmp eq i32 %8, -2147483648
  br i1 %9, label %10, label %14

10:                                               ; preds = %3
  %11 = load ptr, ptr %5, align 8
  %12 = load i32, ptr %6, align 4
  %13 = call zeroext i16 @tvb_get_letohs(ptr noundef %11, i32 noundef %12)
  store i16 %13, ptr %4, align 2
  br label %18

14:                                               ; preds = %3
  %15 = load ptr, ptr %5, align 8
  %16 = load i32, ptr %6, align 4
  %17 = call zeroext i16 @tvb_get_ntohs(ptr noundef %15, i32 noundef %16)
  store i16 %17, ptr %4, align 2
  br label %18

18:                                               ; preds = %14, %10
  %19 = load i16, ptr %4, align 2
  ret i16 %19
}

; Function Attrs: null_pointer_is_valid sspstrong uwtable
define internal i32 @corosync_totemsrp_get_uint32(ptr noundef %0, i32 noundef %1, i32 noundef %2) #0 {
  %4 = alloca i32, align 4
  %5 = alloca ptr, align 8
  %6 = alloca i32, align 4
  %7 = alloca i32, align 4
  store ptr %0, ptr %5, align 8
  store i32 %1, ptr %6, align 4
  store i32 %2, ptr %7, align 4
  %8 = load i32, ptr %7, align 4
  %9 = icmp eq i32 %8, -2147483648
  br i1 %9, label %10, label %14

10:                                               ; preds = %3
  %11 = load ptr, ptr %5, align 8
  %12 = load i32, ptr %6, align 4
  %13 = call i32 @tvb_get_letohl(ptr noundef %11, i32 noundef %12)
  store i32 %13, ptr %4, align 4
  br label %18

14:                                               ; preds = %3
  %15 = load ptr, ptr %5, align 8
  %16 = load i32, ptr %6, align 4
  %17 = call i32 @tvb_get_ntohl(ptr noundef %15, i32 noundef %16)
  store i32 %17, ptr %4, align 4
  br label %18

18:                                               ; preds = %14, %10
  %19 = load i32, ptr %4, align 4
  ret i32 %19
}

; Function Attrs: null_pointer_is_valid sspstrong uwtable
define internal i32 @dissect_corosync_totemsrp_ip_address(ptr noundef %0, ptr noundef %1, ptr noundef %2, i32 noundef %3, i32 noundef %4, i32 noundef %5, i1 noundef zeroext %6, i32 noundef %7, ptr noundef %8) #0 {
  %10 = alloca ptr, align 8
  %11 = alloca ptr, align 8
  %12 = alloca ptr, align 8
  %13 = alloca i32, align 4
  %14 = alloca i32, align 4
  %15 = alloca i32, align 4
  %16 = alloca i8, align 1
  %17 = alloca i32, align 4
  %18 = alloca ptr, align 8
  %19 = alloca i16, align 2
  %20 = alloca i32, align 4
  %21 = alloca i32, align 4
  %22 = alloca ptr, align 8
  %23 = alloca ptr, align 8
  %24 = alloca i32, align 4
  %25 = alloca i32, align 4
  store ptr %0, ptr %10, align 8
  store ptr %1, ptr %11, align 8
  store ptr %2, ptr %12, align 8
  store i32 %3, ptr %13, align 4
  store i32 %4, ptr %14, align 4
  store i32 %5, ptr %15, align 4
  %26 = zext i1 %6 to i8
  store i8 %26, ptr %16, align 1
  store i32 %7, ptr %17, align 4
  store ptr %8, ptr %18, align 8
  call void @llvm.lifetime.start.p0(i64 2, ptr %19) #4
  call void @llvm.lifetime.start.p0(i64 4, ptr %20) #4
  call void @llvm.lifetime.start.p0(i64 4, ptr %21) #4
  %27 = load i32, ptr %14, align 4
  store i32 %27, ptr %21, align 4
  call void @llvm.lifetime.start.p0(i64 8, ptr %22) #4
  call void @llvm.lifetime.start.p0(i64 8, ptr %23) #4
  call void @llvm.lifetime.start.p0(i64 4, ptr %24) #4
  %28 = load ptr, ptr %10, align 8
  %29 = load i32, ptr %14, align 4
  %30 = load i32, ptr %15, align 4
  %31 = call i32 @corosync_totemsrp_get_uint32(ptr noundef %28, i32 noundef %29, i32 noundef %30)
  store i32 %31, ptr %20, align 4
  %32 = load ptr, ptr %18, align 8
  %33 = icmp ne ptr %32, null
  br i1 %33, label %34, label %37

34:                                               ; preds = %9
  %35 = load i32, ptr %20, align 4
  %36 = load ptr, ptr %18, align 8
  store i32 %35, ptr %36, align 4
  br label %37

37:                                               ; preds = %34, %9
  %38 = load ptr, ptr %10, align 8
  %39 = load i32, ptr %14, align 4
  %40 = add i32 %39, 4
  %41 = load i32, ptr %15, align 4
  %42 = call zeroext i16 @corosync_totemsrp_get_uint16(ptr noundef %38, i32 noundef %40, i32 noundef %41)
  store i16 %42, ptr %19, align 2
  %43 = load ptr, ptr %12, align 8
  %44 = load i32, ptr @hf_corosync_totemsrp_ip_address, align 4
  %45 = load ptr, ptr %10, align 8
  %46 = load i32, ptr %14, align 4
  %47 = call ptr @proto_tree_add_item(ptr noundef %43, i32 noundef %44, ptr noundef %45, i32 noundef %46, i32 noundef -1, i32 noundef 0)
  store ptr %47, ptr %23, align 8
  %48 = load ptr, ptr %23, align 8
  %49 = load i32, ptr @ett_corosync_totemsrp_ip_address, align 4
  %50 = call ptr @proto_item_add_subtree(ptr noundef %48, i32 noundef %49)
  store ptr %50, ptr %22, align 8
  %51 = load ptr, ptr %23, align 8
  call void (ptr, ptr, ...) @proto_item_append_text(ptr noundef %51, ptr noundef @.str.116)
  %52 = load i8, ptr %16, align 1, !range !6, !noundef !7
  %53 = trunc i8 %52 to i1
  br i1 %53, label %54, label %57

54:                                               ; preds = %37
  %55 = load ptr, ptr %23, align 8
  %56 = load i32, ptr %17, align 4
  call void (ptr, ptr, ...) @proto_item_append_text(ptr noundef %55, ptr noundef @.str.117, i32 noundef %56)
  br label %57

57:                                               ; preds = %54, %37
  %58 = load ptr, ptr %22, align 8
  %59 = load i32, ptr @hf_corosync_totemsrp_ip_address_nodeid, align 4
  %60 = load ptr, ptr %10, align 8
  %61 = load i32, ptr %14, align 4
  %62 = load i32, ptr %15, align 4
  %63 = call ptr @proto_tree_add_item(ptr noundef %58, i32 noundef %59, ptr noundef %60, i32 noundef %61, i32 noundef 4, i32 noundef %62)
  %64 = load ptr, ptr %23, align 8
  %65 = load i32, ptr %20, align 4
  call void (ptr, ptr, ...) @proto_item_append_text(ptr noundef %64, ptr noundef @.str.118, i32 noundef %65)
  %66 = load i32, ptr %14, align 4
  %67 = add i32 %66, 4
  store i32 %67, ptr %14, align 4
  %68 = load ptr, ptr %22, align 8
  %69 = load i32, ptr @hf_corosync_totemsrp_ip_address_family, align 4
  %70 = load ptr, ptr %10, align 8
  %71 = load i32, ptr %14, align 4
  %72 = load i32, ptr %15, align 4
  %73 = call ptr @proto_tree_add_item(ptr noundef %68, i32 noundef %69, ptr noundef %70, i32 noundef %71, i32 noundef 2, i32 noundef %72)
  %74 = load i32, ptr %14, align 4
  %75 = add i32 %74, 2
  store i32 %75, ptr %14, align 4
  %76 = load i16, ptr %19, align 2
  %77 = zext i16 %76 to i32
  switch i32 %77, label %92 [
    i32 2, label %78
    i32 24, label %85
    i32 28, label %85
    i32 30, label %85
    i32 10, label %85
    i32 26, label %85
    i32 23, label %85
  ]

78:                                               ; preds = %57
  store i32 4, ptr %24, align 4
  %79 = load ptr, ptr %22, align 8
  %80 = load i32, ptr @hf_corosync_totemsrp_ip_address_addr4, align 4
  %81 = load ptr, ptr %10, align 8
  %82 = load i32, ptr %14, align 4
  %83 = load i32, ptr %24, align 4
  %84 = call ptr @proto_tree_add_item(ptr noundef %79, i32 noundef %80, ptr noundef %81, i32 noundef %82, i32 noundef %83, i32 noundef 0)
  br label %99

85:                                               ; preds = %57, %57, %57, %57, %57, %57
  store i32 16, ptr %24, align 4
  %86 = load ptr, ptr %22, align 8
  %87 = load i32, ptr @hf_corosync_totemsrp_ip_address_addr6, align 4
  %88 = load ptr, ptr %10, align 8
  %89 = load i32, ptr %14, align 4
  %90 = load i32, ptr %24, align 4
  %91 = call ptr @proto_tree_add_item(ptr noundef %86, i32 noundef %87, ptr noundef %88, i32 noundef %89, i32 noundef %90, i32 noundef 0)
  br label %99

92:                                               ; preds = %57
  store i32 16, ptr %24, align 4
  %93 = load ptr, ptr %22, align 8
  %94 = load i32, ptr @hf_corosync_totemsrp_ip_address_addr, align 4
  %95 = load ptr, ptr %10, align 8
  %96 = load i32, ptr %14, align 4
  %97 = load i32, ptr %24, align 4
  %98 = call ptr @proto_tree_add_item(ptr noundef %93, i32 noundef %94, ptr noundef %95, i32 noundef %96, i32 noundef %97, i32 noundef 0)
  br label %99

99:                                               ; preds = %92, %85, %78
  %100 = load i32, ptr %24, align 4
  %101 = load i32, ptr %14, align 4
  %102 = add i32 %101, %100
  store i32 %102, ptr %14, align 4
  %103 = load i32, ptr %24, align 4
  %104 = sext i32 %103 to i64
  %105 = icmp ne i64 %104, 16
  br i1 %105, label %106, label %120

106:                                              ; preds = %99
  call void @llvm.lifetime.start.p0(i64 4, ptr %25) #4
  %107 = load i32, ptr %24, align 4
  %108 = sext i32 %107 to i64
  %109 = sub i64 16, %108
  %110 = trunc i64 %109 to i32
  store i32 %110, ptr %25, align 4
  %111 = load ptr, ptr %22, align 8
  %112 = load i32, ptr @hf_corosync_totemsrp_ip_address_addr4_padding, align 4
  %113 = load ptr, ptr %10, align 8
  %114 = load i32, ptr %14, align 4
  %115 = load i32, ptr %25, align 4
  %116 = call ptr @proto_tree_add_item(ptr noundef %111, i32 noundef %112, ptr noundef %113, i32 noundef %114, i32 noundef %115, i32 noundef 0)
  %117 = load i32, ptr %25, align 4
  %118 = load i32, ptr %14, align 4
  %119 = add i32 %118, %117
  store i32 %119, ptr %14, align 4
  call void @llvm.lifetime.end.p0(i64 4, ptr %25) #4
  br label %120

120:                                              ; preds = %106, %99
  %121 = load ptr, ptr %23, align 8
  %122 = load i32, ptr %14, align 4
  %123 = load i32, ptr %21, align 4
  %124 = sub i32 %122, %123
  call void @proto_item_set_len(ptr noundef %121, i32 noundef %124)
  %125 = load i32, ptr %14, align 4
  %126 = load i32, ptr %21, align 4
  %127 = sub i32 %125, %126
  call void @llvm.lifetime.end.p0(i64 4, ptr %24) #4
  call void @llvm.lifetime.end.p0(i64 8, ptr %23) #4
  call void @llvm.lifetime.end.p0(i64 8, ptr %22) #4
  call void @llvm.lifetime.end.p0(i64 4, ptr %21) #4
  call void @llvm.lifetime.end.p0(i64 4, ptr %20) #4
  call void @llvm.lifetime.end.p0(i64 2, ptr %19) #4
  ret i32 %127
}