; Function Attrs: null_pointer_is_valid sspstrong uwtable
define internal fastcc noundef i32 @dissect_corosync_totemsrp_ip_address(ptr noundef %0, ptr noundef %1, i32 noundef %2, i32 noundef range(i32 -2147483648, 1) %3, i1 noundef zeroext %4, i32 noundef range(i32 -1, 2) %5, ptr noundef writeonly captures(address_is_null) %6) unnamed_addr #0 {
  %8 = icmp eq i32 %3, -2147483648
  br i1 %8, label %9, label %11

9:                                                ; preds = %7
  %10 = tail call i32 @tvb_get_letohl(ptr noundef %0, i32 noundef %2)
  br label %corosync_totemsrp_get_uint32.exit

11:                                               ; preds = %7
  %12 = tail call i32 @tvb_get_ntohl(ptr noundef %0, i32 noundef %2)
  br label %corosync_totemsrp_get_uint32.exit

corosync_totemsrp_get_uint32.exit:                ; preds = %9, %11
  %.0.i = phi i32 [ %10, %9 ], [ %12, %11 ]
  %.not = icmp eq ptr %6, null
  br i1 %.not, label %14, label %13

13:                                               ; preds = %corosync_totemsrp_get_uint32.exit
  store i32 %.0.i, ptr %6, align 4
  br label %14

14:                                               ; preds = %13, %corosync_totemsrp_get_uint32.exit
  %15 = add i32 %2, 4
  br i1 %8, label %16, label %18

16:                                               ; preds = %14
  %17 = tail call zeroext i16 @tvb_get_letohs(ptr noundef %0, i32 noundef %15)
  br label %corosync_totemsrp_get_uint16.exit

18:                                               ; preds = %14
  %19 = tail call zeroext i16 @tvb_get_ntohs(ptr noundef %0, i32 noundef %15)
  br label %corosync_totemsrp_get_uint16.exit

corosync_totemsrp_get_uint16.exit:                ; preds = %16, %18
  %.0.i61 = phi i16 [ %17, %16 ], [ %19, %18 ]
  %20 = load i32, ptr @hf_corosync_totemsrp_ip_address, align 4
  %21 = tail call ptr @proto_tree_add_item(ptr noundef %1, i32 noundef %20, ptr noundef %0, i32 noundef %2, i32 noundef -1, i32 noundef 0)
  %22 = load i32, ptr @ett_corosync_totemsrp_ip_address, align 4
  %23 = tail call ptr @proto_item_add_subtree(ptr noundef %21, i32 noundef %22)
  tail call void (ptr, ptr, ...) @proto_item_append_text(ptr noundef %21, ptr noundef nonnull @.str.116)
  br i1 %4, label %24, label %25

24:                                               ; preds = %corosync_totemsrp_get_uint16.exit
  tail call void (ptr, ptr, ...) @proto_item_append_text(ptr noundef %21, ptr noundef nonnull @.str.117, i32 noundef %5)
  br label %25

25:                                               ; preds = %24, %corosync_totemsrp_get_uint16.exit
  %26 = load i32, ptr @hf_corosync_totemsrp_ip_address_nodeid, align 4
  %27 = tail call ptr @proto_tree_add_item(ptr noundef %23, i32 noundef %26, ptr noundef %0, i32 noundef %2, i32 noundef 4, i32 noundef %3)
  tail call void (ptr, ptr, ...) @proto_item_append_text(ptr noundef %21, ptr noundef nonnull @.str.118, i32 noundef %.0.i)
  %28 = load i32, ptr @hf_corosync_totemsrp_ip_address_family, align 4
  %29 = tail call ptr @proto_tree_add_item(ptr noundef %23, i32 noundef %28, ptr noundef %0, i32 noundef %15, i32 noundef 2, i32 noundef %3)
  %30 = add i32 %2, 6
  switch i16 %.0.i61, label %34 [
    i16 2, label %37
    i16 24, label %31
    i16 28, label %31
    i16 30, label %31
    i16 10, label %31
    i16 26, label %31
    i16 23, label %31
  ]

31:                                               ; preds = %25, %25, %25, %25, %25, %25
  %32 = load i32, ptr @hf_corosync_totemsrp_ip_address_addr6, align 4
  %33 = tail call ptr @proto_tree_add_item(ptr noundef %23, i32 noundef %32, ptr noundef %0, i32 noundef %30, i32 noundef 16, i32 noundef 0)
  br label %.thread

34:                                               ; preds = %25
  %35 = load i32, ptr @hf_corosync_totemsrp_ip_address_addr, align 4
  %36 = tail call ptr @proto_tree_add_item(ptr noundef %23, i32 noundef %35, ptr noundef %0, i32 noundef %30, i32 noundef 16, i32 noundef 0)
  br label %.thread

37:                                               ; preds = %25
  %38 = load i32, ptr @hf_corosync_totemsrp_ip_address_addr4, align 4
  %39 = tail call ptr @proto_tree_add_item(ptr noundef %23, i32 noundef %38, ptr noundef %0, i32 noundef %30, i32 noundef 4, i32 noundef 0)
  %40 = add i32 %2, 10
  %41 = load i32, ptr @hf_corosync_totemsrp_ip_address_addr4_padding, align 4
  %42 = tail call ptr @proto_tree_add_item(ptr noundef %23, i32 noundef %41, ptr noundef %0, i32 noundef %40, i32 noundef 12, i32 noundef 0)
  br label %.thread

.thread:                                          ; preds = %31, %34, %37
  tail call void @proto_item_set_len(ptr noundef %21, i32 noundef 22)
  ret i32 22
}